; Function Attrs: mustprogress nounwind uwtable
define void @_ZN7glslang17TParseContextBase4warnERKNS_10TSourceLocEPKcS5_S5_z(ptr noundef nonnull align 8 dereferenceable(1280) %0, ptr noundef nonnull align 8 dereferenceable(24) %1, ptr noundef %2, ptr noundef %3, ptr noundef %4, ...) unnamed_addr #0 align 2 {
  %6 = alloca [1 x %struct.__va_list_tag], align 16
  %7 = getelementptr inbounds nuw i8, ptr %0, i64 208
  %8 = load i32, ptr %7, align 8
  %9 = and i32 %8, 2
  %.not = icmp eq i32 %9, 0
  br i1 %.not, label %10, label %14

10:                                               ; preds = %5
  call void @llvm.va_start.p0(ptr nonnull %6)
  %11 = load ptr, ptr %0, align 8
  %12 = getelementptr inbounds nuw i8, ptr %11, i64 592
  %13 = load ptr, ptr %12, align 8
  call void %13(ptr noundef nonnull align 8 dereferenceable(1280) %0, ptr noundef nonnull align 8 dereferenceable(24) %1, ptr noundef %2, ptr noundef %3, ptr noundef %4, i32 noundef 1, ptr noundef nonnull %6) #16
  call void @llvm.va_end.p0(ptr nonnull %6)
  br label %14

14:                                               ; preds = %5, %10
  ret void
}